target datalayout = "e-m:e-p270:32:32-p271:32:32-p272:64:64-i64:64-i128:128-f80:128-n8:16:32:64-S128"
target triple = "x86_64-pc-linux-gnu"

%struct.malloc_chunk = type { i64, i64, ptr, ptr }
%struct.malloc_state = type { i32, i32, i64, i64, ptr, ptr, i64, i64, [66 x ptr], [32 x ptr], %struct.malloc_segment, ptr }
%struct.malloc_segment = type { ptr, i64, ptr }

; Function Attrs: nounwind uwtable
define internal void @init_top(ptr noundef %0, ptr noundef %1, i64 noundef %2) #0 {
  %4 = alloca ptr, align 8
  %5 = alloca ptr, align 8
  %6 = alloca i64, align 8
  %7 = alloca i64, align 8
  store ptr %0, ptr %4, align 8, !tbaa !15
  store ptr %1, ptr %5, align 8, !tbaa !13
  store i64 %2, ptr %6, align 8, !tbaa !9
  call void @llvm.lifetime.start.p0(i64 8, ptr %7) #10
  %8 = load ptr, ptr %5, align 8, !tbaa !13
  %9 = getelementptr inbounds nuw i8, ptr %8, i64 16
  %10 = ptrtoint ptr %9 to i64
  %11 = and i64 %10, 7
  %12 = icmp eq i64 %11, 0
  br i1 %12, label %13, label %14

13:                                               ; preds = %3
  br label %21

14:                                               ; preds = %3
  %15 = load ptr, ptr %5, align 8, !tbaa !13
  %16 = getelementptr inbounds nuw i8, ptr %15, i64 16
  %17 = ptrtoint ptr %16 to i64
  %18 = and i64 %17, 7
  %19 = sub i64 8, %18
  %20 = and i64 %19, 7
  br label %21

21:                                               ; preds = %14, %13
  %22 = phi i64 [ 0, %13 ], [ %20, %14 ]
  store i64 %22, ptr %7, align 8, !tbaa !9
  %23 = load ptr, ptr %5, align 8, !tbaa !13
  %24 = load i64, ptr %7, align 8, !tbaa !9
  %25 = getelementptr inbounds nuw i8, ptr %23, i64 %24
  store ptr %25, ptr %5, align 8, !tbaa !13
  %26 = load i64, ptr %7, align 8, !tbaa !9
  %27 = load i64, ptr %6, align 8, !tbaa !9
  %28 = sub i64 %27, %26
  store i64 %28, ptr %6, align 8, !tbaa !9
  %29 = load ptr, ptr %5, align 8, !tbaa !13
  %30 = load ptr, ptr %4, align 8, !tbaa !15
  %31 = getelementptr inbounds nuw %struct.malloc_state, ptr %30, i32 0, i32 5
  store ptr %29, ptr %31, align 8, !tbaa !34
  %32 = load i64, ptr %6, align 8, !tbaa !9
  %33 = load ptr, ptr %4, align 8, !tbaa !15
  %34 = getelementptr inbounds nuw %struct.malloc_state, ptr %33, i32 0, i32 3
  store i64 %32, ptr %34, align 8, !tbaa !35
  %35 = load i64, ptr %6, align 8, !tbaa !9
  %36 = or i64 %35, 1
  %37 = load ptr, ptr %5, align 8, !tbaa !13
  %38 = getelementptr inbounds nuw %struct.malloc_chunk, ptr %37, i32 0, i32 1
  store i64 %36, ptr %38, align 8, !tbaa !17
  %39 = load ptr, ptr %5, align 8, !tbaa !13
  %40 = load i64, ptr %6, align 8, !tbaa !9
  %41 = getelementptr inbounds nuw i8, ptr %39, i64 %40
  %42 = getelementptr inbounds nuw %struct.malloc_chunk, ptr %41, i32 0, i32 1
  store i64 64, ptr %42, align 8, !tbaa !17
  %43 = load ptr, ptr %4, align 8, !tbaa !15
  %44 = getelementptr inbounds nuw %struct.malloc_state, ptr %43, i32 0, i32 6
  store i64 2097152, ptr %44, align 8, !tbaa !36
  call void @llvm.lifetime.end.p0(i64 8, ptr %7) #10
  ret void
}

; Function Attrs: nounwind uwtable
define internal void @init_bins(ptr noundef %0) #0 {
  %2 = alloca ptr, align 8
  %3 = alloca i64, align 8
  %4 = alloca ptr, align 8
  store ptr %0, ptr %2, align 8, !tbaa !15
  call void @llvm.lifetime.start.p0(i64 8, ptr %3) #10
  store i64 0, ptr %3, align 8, !tbaa !9
  br label %5

5:                                                ; preds = %19, %1
  %6 = load i64, ptr %3, align 8, !tbaa !9
  %7 = icmp ult i64 %6, 32
  br i1 %7, label %8, label %22

8:                                                ; preds = %5
  call void @llvm.lifetime.start.p0(i64 8, ptr %4) #10
  %9 = load ptr, ptr %2, align 8, !tbaa !15
  %10 = getelementptr inbounds nuw %struct.malloc_state, ptr %9, i32 0, i32 8
  %11 = load i64, ptr %3, align 8, !tbaa !9
  %12 = shl i64 %11, 1
  %13 = getelementptr inbounds nuw [66 x ptr], ptr %10, i64 0, i64 %12
  store ptr %13, ptr %4, align 8, !tbaa !13
  %14 = load ptr, ptr %4, align 8, !tbaa !13
  %15 = load ptr, ptr %4, align 8, !tbaa !13
  %16 = getelementptr inbounds nuw %struct.malloc_chunk, ptr %15, i32 0, i32 3
  store ptr %14, ptr %16, align 8, !tbaa !31
  %17 = load ptr, ptr %4, align 8, !tbaa !13
  %18 = getelementptr inbounds nuw %struct.malloc_chunk, ptr %17, i32 0, i32 2
  store ptr %14, ptr %18, align 8, !tbaa !32
  call void @llvm.lifetime.end.p0(i64 8, ptr %4) #10
  br label %19

19:                                               ; preds = %8
  %20 = load i64, ptr %3, align 8, !tbaa !9
  %21 = add i64 %20, 1
  store i64 %21, ptr %3, align 8, !tbaa !9
  br label %5, !llvm.loop !33

22:                                               ; preds = %5
  call void @llvm.lifetime.end.p0(i64 8, ptr %3) #10
  ret void
}

; Function Attrs: nounwind uwtable
define hidden ptr @lj_alloc_create(ptr noundef %0) #0 {
  %2 = alloca ptr, align 8
  %3 = alloca ptr, align 8
  %4 = alloca i64, align 8
  %5 = alloca ptr, align 8
  %6 = alloca i64, align 8
  %7 = alloca ptr, align 8
  %8 = alloca ptr, align 8
  %9 = alloca ptr, align 8
  %10 = alloca i32, align 4
  store ptr %0, ptr %3, align 8, !tbaa !4
  call void @llvm.lifetime.start.p0(i64 8, ptr %4) #10
  store i64 131072, ptr %4, align 8, !tbaa !9
  call void @llvm.lifetime.start.p0(i64 8, ptr %5) #10
  %11 = load ptr, ptr %3, align 8, !tbaa !4
  %12 = load i64, ptr %4, align 8, !tbaa !9
  %13 = call ptr @mmap_probe(ptr noundef %11, i64 noundef %12)
  store ptr %13, ptr %5, align 8, !tbaa !11
  %14 = load ptr, ptr %5, align 8, !tbaa !11
  %15 = icmp ne ptr %14, inttoptr (i64 -1 to ptr)
  br i1 %15, label %16, label %73

16:                                               ; preds = %1
  call void @llvm.lifetime.start.p0(i64 8, ptr %6) #10
  store i64 880, ptr %6, align 8, !tbaa !9
  call void @llvm.lifetime.start.p0(i64 8, ptr %7) #10
  call void @llvm.lifetime.start.p0(i64 8, ptr %8) #10
  %17 = load ptr, ptr %5, align 8, !tbaa !11
  %18 = load ptr, ptr %5, align 8, !tbaa !11
  %19 = getelementptr inbounds nuw i8, ptr %18, i64 16
  %20 = ptrtoint ptr %19 to i64
  %21 = and i64 %20, 7
  %22 = icmp eq i64 %21, 0
  br i1 %22, label %23, label %24

23:                                               ; preds = %16
  br label %31

24:                                               ; preds = %16
  %25 = load ptr, ptr %5, align 8, !tbaa !11
  %26 = getelementptr inbounds nuw i8, ptr %25, i64 16
  %27 = ptrtoint ptr %26 to i64
  %28 = and i64 %27, 7
  %29 = sub i64 8, %28
  %30 = and i64 %29, 7
  br label %31

31:                                               ; preds = %24, %23
  %32 = phi i64 [ 0, %23 ], [ %30, %24 ]
  %33 = getelementptr inbounds nuw i8, ptr %17, i64 %32
  store ptr %33, ptr %8, align 8, !tbaa !13
  call void @llvm.lifetime.start.p0(i64 8, ptr %9) #10
  %34 = load ptr, ptr %8, align 8, !tbaa !13
  %35 = getelementptr inbounds nuw i8, ptr %34, i64 16
  store ptr %35, ptr %9, align 8, !tbaa !15
  %36 = load ptr, ptr %9, align 8, !tbaa !15
  %37 = load i64, ptr %6, align 8, !tbaa !9
  call void @llvm.memset.p0.i64(ptr align 8 %36, i8 0, i64 %37, i1 false)
  %38 = load i64, ptr %6, align 8, !tbaa !9
  %39 = or i64 %38, 1
  %40 = or i64 %39, 2
  %41 = load ptr, ptr %8, align 8, !tbaa !13
  %42 = getelementptr inbounds nuw %struct.malloc_chunk, ptr %41, i32 0, i32 1
  store i64 %40, ptr %42, align 8, !tbaa !17
  %43 = load ptr, ptr %5, align 8, !tbaa !11
  %44 = load ptr, ptr %9, align 8, !tbaa !15
  %45 = getelementptr inbounds nuw %struct.malloc_state, ptr %44, i32 0, i32 10
  %46 = getelementptr inbounds nuw %struct.malloc_segment, ptr %45, i32 0, i32 0
  store ptr %43, ptr %46, align 8, !tbaa !19
  %47 = load i64, ptr %4, align 8, !tbaa !9
  %48 = load ptr, ptr %9, align 8, !tbaa !15
  %49 = getelementptr inbounds nuw %struct.malloc_state, ptr %48, i32 0, i32 10
  %50 = getelementptr inbounds nuw %struct.malloc_segment, ptr %49, i32 0, i32 1
  store i64 %47, ptr %50, align 8, !tbaa !24
  %51 = load ptr, ptr %9, align 8, !tbaa !15
  %52 = getelementptr inbounds nuw %struct.malloc_state, ptr %51, i32 0, i32 7
  store i64 255, ptr %52, align 8, !tbaa !25
  %53 = load ptr, ptr %9, align 8, !tbaa !15
  call void @init_bins(ptr noundef %53)
  %54 = load ptr, ptr %9, align 8, !tbaa !15
  %55 = getelementptr inbounds i8, ptr %54, i64 -16
  %56 = load ptr, ptr %9, align 8, !tbaa !15
  %57 = getelementptr inbounds i8, ptr %56, i64 -16
  %58 = getelementptr inbounds nuw %struct.malloc_chunk, ptr %57, i32 0, i32 1
  %59 = load i64, ptr %58, align 8, !tbaa !17
  %60 = and i64 %59, -4
  %61 = getelementptr inbounds nuw i8, ptr %55, i64 %60
  store ptr %61, ptr %7, align 8, !tbaa !13
  %62 = load ptr, ptr %9, align 8, !tbaa !15
  %63 = load ptr, ptr %7, align 8, !tbaa !13
  %64 = load ptr, ptr %5, align 8, !tbaa !11
  %65 = load i64, ptr %4, align 8, !tbaa !9
  %66 = getelementptr inbounds nuw i8, ptr %64, i64 %65
  %67 = load ptr, ptr %7, align 8, !tbaa !13
  %68 = ptrtoint ptr %66 to i64
  %69 = ptrtoint ptr %67 to i64
  %70 = sub i64 %68, %69
  %71 = sub i64 %70, 64
  call void @init_top(ptr noundef %62, ptr noundef %63, i64 noundef %71)
  %72 = load ptr, ptr %9, align 8, !tbaa !15
  store ptr %72, ptr %2, align 8
  store i32 1, ptr %10, align 4
  call void @llvm.lifetime.end.p0(i64 8, ptr %9) #10
  call void @llvm.lifetime.end.p0(i64 8, ptr %8) #10
  call void @llvm.lifetime.end.p0(i64 8, ptr %7) #10
  call void @llvm.lifetime.end.p0(i64 8, ptr %6) #10
  br label %74

73:                                               ; preds = %1
  store ptr null, ptr %2, align 8
  store i32 1, ptr %10, align 4
  br label %74

74:                                               ; preds = %73, %31
  call void @llvm.lifetime.end.p0(i64 8, ptr %5) #10
  call void @llvm.lifetime.end.p0(i64 8, ptr %4) #10
  %75 = load ptr, ptr %2, align 8
  ret ptr %75
}