; Function Attrs: nounwind uwtable
define hidden noundef ptr @lj_alloc_create(ptr noundef %0) local_unnamed_addr #0 {
  %2 = tail call fastcc ptr @mmap_probe(ptr noundef %0, i64 noundef 131072)
  %.not = icmp eq ptr %2, inttoptr (i64 -1 to ptr)
  br i1 %.not, label %40, label %3

3:                                                ; preds = %1
  %4 = getelementptr inbounds nuw i8, ptr %2, i64 16
  %5 = ptrtoint ptr %4 to i64
  %6 = sub i64 0, %5
  %7 = and i64 %6, 7
  %8 = getelementptr inbounds nuw i8, ptr %2, i64 %7
  %9 = getelementptr inbounds nuw i8, ptr %8, i64 16
  tail call void @llvm.memset.p0.i64(ptr noundef nonnull align 8 dereferenceable(880) %9, i8 0, i64 880, i1 false)
  %10 = getelementptr inbounds nuw i8, ptr %8, i64 8
  store i64 883, ptr %10, align 8, !tbaa !4
  %11 = getelementptr inbounds nuw i8, ptr %8, i64 856
  store ptr %2, ptr %11, align 8, !tbaa !11
  %12 = getelementptr inbounds nuw i8, ptr %8, i64 864
  store i64 131072, ptr %12, align 8, !tbaa !18
  %13 = getelementptr inbounds nuw i8, ptr %8, i64 64
  store i64 255, ptr %13, align 8, !tbaa !19
  %14 = getelementptr inbounds nuw i8, ptr %8, i64 72
  br label %15

15:                                               ; preds = %15, %3
  %.06.i = phi i64 [ 0, %3 ], [ %20, %15 ]
  %16 = shl nuw nsw i64 %.06.i, 1
  %17 = getelementptr inbounds nuw [66 x ptr], ptr %14, i64 0, i64 %16
  %18 = getelementptr inbounds nuw i8, ptr %17, i64 24
  store ptr %17, ptr %18, align 8, !tbaa !20
  %19 = getelementptr inbounds nuw i8, ptr %17, i64 16
  store ptr %17, ptr %19, align 8, !tbaa !21
  %20 = add nuw nsw i64 %.06.i, 1
  %exitcond.not.i = icmp eq i64 %20, 32
  br i1 %exitcond.not.i, label %init_bins.exit, label %15, !llvm.loop !22

init_bins.exit:                                   ; preds = %15
  %21 = getelementptr inbounds nuw i8, ptr %8, i64 880
  %22 = getelementptr inbounds nuw i8, ptr %2, i64 131072
  %23 = ptrtoint ptr %22 to i64
  %24 = ptrtoint ptr %21 to i64
  %25 = sub i64 %23, %24
  %26 = add i64 %25, -64
  %27 = getelementptr inbounds nuw i8, ptr %8, i64 896
  %28 = ptrtoint ptr %27 to i64
  %29 = sub i64 0, %28
  %30 = and i64 %29, 7
  %31 = getelementptr inbounds nuw i8, ptr %21, i64 %30
  %32 = sub i64 %26, %30
  %33 = getelementptr inbounds nuw i8, ptr %8, i64 48
  store ptr %31, ptr %33, align 8, !tbaa !24
  %34 = getelementptr inbounds nuw i8, ptr %8, i64 32
  store i64 %32, ptr %34, align 8, !tbaa !25
  %35 = or i64 %32, 1
  %36 = getelementptr inbounds nuw i8, ptr %31, i64 8
  store i64 %35, ptr %36, align 8, !tbaa !4
  %37 = getelementptr inbounds nuw i8, ptr %21, i64 %26
  %38 = getelementptr inbounds nuw i8, ptr %37, i64 8
  store i64 64, ptr %38, align 8, !tbaa !4
  %39 = getelementptr inbounds nuw i8, ptr %8, i64 56
  store i64 2097152, ptr %39, align 8, !tbaa !26
  br label %40

40:                                               ; preds = %1, %init_bins.exit
  %.0 = phi ptr [ %9, %init_bins.exit ], [ null, %1 ]
  ret ptr %.0
}